target datalayout = "e-m:e-p270:32:32-p271:32:32-p272:64:64-i64:64-i128:128-f80:128-n8:16:32:64-S128"
target triple = "x86_64-pc-linux-gnu"

%struct.H5VL_object_t = type { ptr, ptr, i64 }

@H5_libinit_g = external global i8, align 1
@H5_libterm_g = external global i8, align 1
@.str = private unnamed_addr constant [97 x i8] c"generated/home/dtcxzyw/WorkSpace/Projects/compilers/llvm-opt-benchmark/bench/hdf5/hdf5/src/H5O.c\00", align 1
@H5E_FUNC_g = external global i64, align 8
@H5E_CANTINIT_g = external global i64, align 8
@.str.1 = private unnamed_addr constant [30 x i8] c"library initialization failed\00", align 1
@H5E_CANTSET_g = external global i64, align 8
@.str.2 = private unnamed_addr constant [22 x i8] c"can't set API context\00", align 1
@H5E_OHDR_g = external global i64, align 8
@.str.6 = private unnamed_addr constant [9 x i8] c"app_file\00", align 1
@.str.7 = private unnamed_addr constant [9 x i8] c"app_func\00", align 1
@.str.8 = private unnamed_addr constant [9 x i8] c"app_line\00", align 1
@.str.12 = private unnamed_addr constant [6 x i8] c"es_id\00", align 1
@H5E_CANTINSERT_g = external global i64, align 8
@.str.14 = private unnamed_addr constant [34 x i8] c"can't insert token into event set\00", align 1
@H5E_CANTCOPY_g = external global i64, align 8
@__func__.H5Ocopy_async = private unnamed_addr constant [14 x i8] c"H5Ocopy_async\00", align 1
@.str.25 = private unnamed_addr constant [37 x i8] c"unable to asynchronously copy object\00", align 1
@.str.26 = private unnamed_addr constant [16 x i8] c"*s*sIui*si*siii\00", align 1
@.str.27 = private unnamed_addr constant [11 x i8] c"src_loc_id\00", align 1
@.str.28 = private unnamed_addr constant [9 x i8] c"src_name\00", align 1
@.str.29 = private unnamed_addr constant [11 x i8] c"dst_loc_id\00", align 1
@.str.30 = private unnamed_addr constant [9 x i8] c"dst_name\00", align 1
@.str.31 = private unnamed_addr constant [10 x i8] c"ocpypl_id\00", align 1
@.str.32 = private unnamed_addr constant [8 x i8] c"lcpl_id\00", align 1

; Function Attrs: nounwind uwtable
define i32 @H5Ocopy_async(ptr noundef %0, ptr noundef %1, i32 noundef %2, i64 noundef %3, ptr noundef %4, i64 noundef %5, ptr noundef %6, i64 noundef %7, i64 noundef %8, i64 noundef %9) #0 {
  %11 = alloca ptr, align 8
  %12 = alloca ptr, align 8
  %13 = alloca i32, align 4
  %14 = alloca i64, align 8
  %15 = alloca ptr, align 8
  %16 = alloca i64, align 8
  %17 = alloca ptr, align 8
  %18 = alloca i64, align 8
  %19 = alloca i64, align 8
  %20 = alloca i64, align 8
  %21 = alloca ptr, align 8
  %22 = alloca ptr, align 8
  %23 = alloca ptr, align 8
  %24 = alloca i32, align 4
  %25 = alloca i8, align 1
  %26 = alloca i8, align 1
  store ptr %0, ptr %11, align 8
  store ptr %1, ptr %12, align 8
  store i32 %2, ptr %13, align 4
  store i64 %3, ptr %14, align 8
  store ptr %4, ptr %15, align 8
  store i64 %5, ptr %16, align 8
  store ptr %6, ptr %17, align 8
  store i64 %7, ptr %18, align 8
  store i64 %8, ptr %19, align 8
  store i64 %9, ptr %20, align 8
  store ptr null, ptr %21, align 8
  store ptr null, ptr %22, align 8
  store ptr null, ptr %23, align 8
  store i32 0, ptr %24, align 4
  store i8 0, ptr %25, align 1
  store i8 0, ptr %26, align 1
  %27 = load i8, ptr @H5_libinit_g, align 1
  %28 = trunc i8 %27 to i1
  br i1 %28, label %33, label %29

29:                                               ; preds = %10
  %30 = load i8, ptr @H5_libterm_g, align 1
  %31 = trunc i8 %30 to i1
  %32 = xor i1 %31, true
  br label %33

33:                                               ; preds = %29, %10
  %34 = phi i1 [ false, %10 ], [ %32, %29 ]
  %35 = xor i1 %34, true
  %36 = xor i1 %35, true
  %37 = zext i1 %36 to i32
  %38 = sext i32 %37 to i64
  %39 = icmp ne i64 %38, 0
  br i1 %39, label %40, label %64

40:                                               ; preds = %33
  %41 = call i32 @H5_init_library()
  %42 = icmp slt i32 %41, 0
  %43 = xor i1 %42, true
  %44 = xor i1 %43, true
  %45 = zext i1 %44 to i32
  %46 = sext i32 %45 to i64
  %47 = icmp ne i64 %46, 0
  br i1 %47, label %48, label %63

48:                                               ; preds = %40
  br label %49

49:                                               ; preds = %48
  br label %50

50:                                               ; preds = %49
  br label %51

51:                                               ; preds = %50
  %52 = load i64, ptr @H5E_FUNC_g, align 8
  %53 = load i64, ptr @H5E_CANTINIT_g, align 8
  %54 = call i32 (ptr, ptr, i32, i64, i64, ptr, ...) @H5E_printf_stack(ptr noundef @.str, ptr noundef @__func__.H5Ocopy_async, i32 noundef 562, i64 noundef %52, i64 noundef %53, ptr noundef @.str.1)
  br label %55

55:                                               ; preds = %51
  store i8 1, ptr %26, align 1
  %56 = load i8, ptr %26, align 1
  %57 = trunc i8 %56 to i1
  %58 = zext i1 %57 to i8
  store i8 %58, ptr %26, align 1
  br label %59

59:                                               ; preds = %55
  br label %60

60:                                               ; preds = %59
  store i32 -1, ptr %24, align 4
  br label %156

61:                                               ; No predecessors!
  br label %62

62:                                               ; preds = %61
  br label %63

63:                                               ; preds = %62, %40
  br label %64

64:                                               ; preds = %63, %33
  %65 = call i32 @H5CX_push()
  %66 = icmp slt i32 %65, 0
  %67 = xor i1 %66, true
  %68 = xor i1 %67, true
  %69 = zext i1 %68 to i32
  %70 = sext i32 %69 to i64
  %71 = icmp ne i64 %70, 0
  br i1 %71, label %72, label %87

72:                                               ; preds = %64
  br label %73

73:                                               ; preds = %72
  br label %74

74:                                               ; preds = %73
  br label %75

75:                                               ; preds = %74
  %76 = load i64, ptr @H5E_FUNC_g, align 8
  %77 = load i64, ptr @H5E_CANTSET_g, align 8
  %78 = call i32 (ptr, ptr, i32, i64, i64, ptr, ...) @H5E_printf_stack(ptr noundef @.str, ptr noundef @__func__.H5Ocopy_async, i32 noundef 562, i64 noundef %76, i64 noundef %77, ptr noundef @.str.2)
  br label %79

79:                                               ; preds = %75
  store i8 1, ptr %26, align 1
  %80 = load i8, ptr %26, align 1
  %81 = trunc i8 %80 to i1
  %82 = zext i1 %81 to i8
  store i8 %82, ptr %26, align 1
  br label %83

83:                                               ; preds = %79
  br label %84

84:                                               ; preds = %83
  store i32 -1, ptr %24, align 4
  br label %156

85:                                               ; No predecessors!
  br label %86

86:                                               ; preds = %85
  br label %88

87:                                               ; preds = %64
  store i8 1, ptr %25, align 1
  br label %88

88:                                               ; preds = %87, %86
  %89 = call i32 @H5E_clear_stack()
  %90 = load i64, ptr %20, align 8
  %91 = icmp ne i64 0, %90
  br i1 %91, label %92, label %93

92:                                               ; preds = %88
  store ptr %22, ptr %23, align 8
  br label %93

93:                                               ; preds = %92, %88
  %94 = load i64, ptr %14, align 8
  %95 = load ptr, ptr %15, align 8
  %96 = load i64, ptr %16, align 8
  %97 = load ptr, ptr %17, align 8
  %98 = load i64, ptr %18, align 8
  %99 = load i64, ptr %19, align 8
  %100 = load ptr, ptr %23, align 8
  %101 = call i32 @H5O__copy_api_common(i64 noundef %94, ptr noundef %95, i64 noundef %96, ptr noundef %97, i64 noundef %98, i64 noundef %99, ptr noundef %100, ptr noundef %21)
  %102 = icmp slt i32 %101, 0
  br i1 %102, label %103, label %118

103:                                              ; preds = %93
  br label %104

104:                                              ; preds = %103
  br label %105

105:                                              ; preds = %104
  br label %106

106:                                              ; preds = %105
  %107 = load i64, ptr @H5E_OHDR_g, align 8
  %108 = load i64, ptr @H5E_CANTCOPY_g, align 8
  %109 = call i32 (ptr, ptr, i32, i64, i64, ptr, ...) @H5E_printf_stack(ptr noundef @.str, ptr noundef @__func__.H5Ocopy_async, i32 noundef 571, i64 noundef %107, i64 noundef %108, ptr noundef @.str.25)
  br label %110

110:                                              ; preds = %106
  store i8 1, ptr %26, align 1
  %111 = load i8, ptr %26, align 1
  %112 = trunc i8 %111 to i1
  %113 = zext i1 %112 to i8
  store i8 %113, ptr %26, align 1
  br label %114

114:                                              ; preds = %110
  br label %115

115:                                              ; preds = %114
  store i32 -1, ptr %24, align 4
  br label %156

116:                                              ; No predecessors!
  br label %117

117:                                              ; preds = %116
  br label %118

118:                                              ; preds = %117, %93
  %119 = load ptr, ptr %22, align 8
  %120 = icmp ne ptr null, %119
  br i1 %120, label %121, label %155

121:                                              ; preds = %118
  %122 = load i64, ptr %20, align 8
  %123 = load ptr, ptr %21, align 8
  %124 = getelementptr inbounds %struct.H5VL_object_t, ptr %123, i32 0, i32 1
  %125 = load ptr, ptr %124, align 8
  %126 = load ptr, ptr %22, align 8
  %127 = load ptr, ptr %11, align 8
  %128 = load ptr, ptr %12, align 8
  %129 = load i32, ptr %13, align 4
  %130 = load i64, ptr %14, align 8
  %131 = load ptr, ptr %15, align 8
  %132 = load i64, ptr %16, align 8
  %133 = load ptr, ptr %17, align 8
  %134 = load i64, ptr %18, align 8
  %135 = load i64, ptr %19, align 8
  %136 = load i64, ptr %20, align 8
  %137 = call i32 (i64, ptr, ptr, ptr, ptr, ...) @H5ES_insert(i64 noundef %122, ptr noundef %125, ptr noundef %126, ptr noundef @__func__.H5Ocopy_async, ptr noundef @.str.26, ptr noundef @.str.6, ptr noundef %127, ptr noundef @.str.7, ptr noundef %128, ptr noundef @.str.8, i32 noundef %129, ptr noundef @.str.27, i64 noundef %130, ptr noundef @.str.28, ptr noundef %131, ptr noundef @.str.29, i64 noundef %132, ptr noundef @.str.30, ptr noundef %133, ptr noundef @.str.31, i64 noundef %134, ptr noundef @.str.32, i64 noundef %135, ptr noundef @.str.12, i64 noundef %136)
  %138 = icmp slt i32 %137, 0
  br i1 %138, label %139, label %154

139:                                              ; preds = %121
  br label %140

140:                                              ; preds = %139
  br label %141

141:                                              ; preds = %140
  br label %142

142:                                              ; preds = %141
  %143 = load i64, ptr @H5E_OHDR_g, align 8
  %144 = load i64, ptr @H5E_CANTINSERT_g, align 8
  %145 = call i32 (ptr, ptr, i32, i64, i64, ptr, ...) @H5E_printf_stack(ptr noundef @.str, ptr noundef @__func__.H5Ocopy_async, i32 noundef 579, i64 noundef %143, i64 noundef %144, ptr noundef @.str.14)
  br label %146

146:                                              ; preds = %142
  store i8 1, ptr %26, align 1
  %147 = load i8, ptr %26, align 1
  %148 = trunc i8 %147 to i1
  %149 = zext i1 %148 to i8
  store i8 %149, ptr %26, align 1
  br label %150

150:                                              ; preds = %146
  br label %151

151:                                              ; preds = %150
  store i32 -1, ptr %24, align 4
  br label %156

152:                                              ; No predecessors!
  br label %153

153:                                              ; preds = %152
  br label %154

154:                                              ; preds = %153, %121
  br label %155

155:                                              ; preds = %154, %118
  br label %156

156:                                              ; preds = %155, %151, %115, %84, %60
  %157 = load i8, ptr %25, align 1
  %158 = trunc i8 %157 to i1
  %159 = xor i1 %158, true
  %160 = xor i1 %159, true
  %161 = zext i1 %160 to i32
  %162 = sext i32 %161 to i64
  %163 = icmp ne i64 %162, 0
  br i1 %163, label %164, label %166

164:                                              ; preds = %156
  %165 = call i32 @H5CX_pop(i1 noundef zeroext true)
  store i8 0, ptr %25, align 1
  br label %166

166:                                              ; preds = %164, %156
  %167 = load i8, ptr %26, align 1
  %168 = trunc i8 %167 to i1
  %169 = xor i1 %168, true
  %170 = xor i1 %169, true
  %171 = zext i1 %170 to i32
  %172 = sext i32 %171 to i64
  %173 = icmp ne i64 %172, 0
  br i1 %173, label %174, label %176

174:                                              ; preds = %166
  %175 = call i32 @H5E_dump_api_stack()
  br label %176

176:                                              ; preds = %174, %166
  %177 = load i32, ptr %24, align 4
  ret i32 %177
}