; Function Attrs: nounwind uwtable
define range(i32 -1, 1) i32 @H5Ocopy_async(ptr noundef %0, ptr noundef %1, i32 noundef %2, i64 noundef %3, ptr noundef %4, i64 noundef %5, ptr noundef %6, i64 noundef %7, i64 noundef %8, i64 noundef %9) local_unnamed_addr #0 {
  %11 = alloca ptr, align 8
  %12 = alloca ptr, align 8
  store ptr null, ptr %11, align 8
  store ptr null, ptr %12, align 8
  %13 = load i8, ptr @H5_libinit_g, align 1
  %14 = trunc i8 %13 to i1
  %15 = load i8, ptr @H5_libterm_g, align 1
  %16 = trunc i8 %15 to i1
  %17 = select i1 %14, i1 true, i1 %16
  br i1 %17, label %25, label %18

18:                                               ; preds = %10
  %19 = tail call i32 @H5_init_library() #4
  %20 = icmp slt i32 %19, 0
  br i1 %20, label %21, label %25

21:                                               ; preds = %18
  %22 = load i64, ptr @H5E_FUNC_g, align 8
  %23 = load i64, ptr @H5E_CANTINIT_g, align 8
  %24 = tail call i32 (ptr, ptr, i32, i64, i64, ptr, ...) @H5E_printf_stack(ptr noundef nonnull @.str, ptr noundef nonnull @__func__.H5Ocopy_async, i32 noundef 562, i64 noundef %22, i64 noundef %23, ptr noundef nonnull @.str.1) #4
  br label %.thread38

25:                                               ; preds = %18, %10
  %26 = tail call i32 @H5CX_push() #4
  %27 = icmp slt i32 %26, 0
  br i1 %27, label %28, label %32

28:                                               ; preds = %25
  %29 = load i64, ptr @H5E_FUNC_g, align 8
  %30 = load i64, ptr @H5E_CANTSET_g, align 8
  %31 = tail call i32 (ptr, ptr, i32, i64, i64, ptr, ...) @H5E_printf_stack(ptr noundef nonnull @.str, ptr noundef nonnull @__func__.H5Ocopy_async, i32 noundef 562, i64 noundef %29, i64 noundef %30, ptr noundef nonnull @.str.2) #4
  br label %.thread38

32:                                               ; preds = %25
  %33 = tail call i32 @H5E_clear_stack() #4
  %.not = icmp eq i64 %9, 0
  %spec.select = select i1 %.not, ptr null, ptr %12
  %34 = call fastcc i32 @H5O__copy_api_common(i64 noundef %3, ptr noundef %4, i64 noundef %5, ptr noundef %6, i64 noundef %7, i64 noundef %8, ptr noundef %spec.select, ptr noundef nonnull %11)
  %35 = icmp slt i32 %34, 0
  br i1 %35, label %36, label %40

36:                                               ; preds = %32
  %37 = load i64, ptr @H5E_OHDR_g, align 8
  %38 = load i64, ptr @H5E_CANTCOPY_g, align 8
  %39 = call i32 (ptr, ptr, i32, i64, i64, ptr, ...) @H5E_printf_stack(ptr noundef nonnull @.str, ptr noundef nonnull @__func__.H5Ocopy_async, i32 noundef 571, i64 noundef %37, i64 noundef %38, ptr noundef nonnull @.str.25) #4
  br label %.thread44

40:                                               ; preds = %32
  %41 = load ptr, ptr %12, align 8
  %.not29 = icmp eq ptr %41, null
  br i1 %.not29, label %53, label %42

42:                                               ; preds = %40
  %43 = load ptr, ptr %11, align 8
  %44 = getelementptr inbounds i8, ptr %43, i64 8
  %45 = load ptr, ptr %44, align 8
  %46 = call i32 (i64, ptr, ptr, ptr, ptr, ...) @H5ES_insert(i64 noundef %9, ptr noundef %45, ptr noundef nonnull %41, ptr noundef nonnull @__func__.H5Ocopy_async, ptr noundef nonnull @.str.26, ptr noundef nonnull @.str.6, ptr noundef %0, ptr noundef nonnull @.str.7, ptr noundef %1, ptr noundef nonnull @.str.8, i32 noundef %2, ptr noundef nonnull @.str.27, i64 noundef %3, ptr noundef nonnull @.str.28, ptr noundef %4, ptr noundef nonnull @.str.29, i64 noundef %5, ptr noundef nonnull @.str.30, ptr noundef %6, ptr noundef nonnull @.str.31, i64 noundef %7, ptr noundef nonnull @.str.32, i64 noundef %8, ptr noundef nonnull @.str.12, i64 noundef %9) #4
  %47 = icmp slt i32 %46, 0
  br i1 %47, label %48, label %53

48:                                               ; preds = %42
  %49 = load i64, ptr @H5E_OHDR_g, align 8
  %50 = load i64, ptr @H5E_CANTINSERT_g, align 8
  %51 = call i32 (ptr, ptr, i32, i64, i64, ptr, ...) @H5E_printf_stack(ptr noundef nonnull @.str, ptr noundef nonnull @__func__.H5Ocopy_async, i32 noundef 579, i64 noundef %49, i64 noundef %50, ptr noundef nonnull @.str.14) #4
  br label %.thread44

.thread44:                                        ; preds = %48, %36
  %52 = call i32 @H5CX_pop(i1 noundef zeroext true) #4
  br label %.thread38

53:                                               ; preds = %40, %42
  %54 = call i32 @H5CX_pop(i1 noundef zeroext true) #4
  br label %56

.thread38:                                        ; preds = %28, %21, %.thread44
  %55 = call i32 @H5E_dump_api_stack() #4
  br label %56

56:                                               ; preds = %53, %.thread38
  %.0263341 = phi i32 [ -1, %.thread38 ], [ 0, %53 ]
  ret i32 %.0263341
}